; Function Attrs: nounwind uwtable
define void @CreateGroup(i32 %0, i32 noundef %1, i32 noundef %2) local_unnamed_addr #6 {
  %4 = mul nsw i32 %1, 40
  %5 = add nsw i32 %4, %2
  %6 = load i32, ptr getelementptr inbounds nuw (i8, ptr @g_rainData, i64 272004), align 4, !tbaa !36
  %7 = sitofp i32 %6 to float
  %8 = load float, ptr getelementptr inbounds nuw (i8, ptr @g_rainData, i64 272000), align 4, !tbaa !34
  %9 = fmul float %8, %7
  %10 = fdiv float %9, 4.000000e+01
  %11 = fmul float %9, 5.000000e-01
  %12 = sitofp i32 %2 to float
  %13 = fadd float %12, 5.000000e-01
  %14 = fmul float %13, %10
  %15 = fsub float %14, %11
  %.sroa.0.0.vec.insert = insertelement <2 x float> poison, float %15, i64 0
  %16 = sitofp i32 %1 to float
  %17 = fmul float %16, 4.500000e+01
  %18 = fadd float %17, 4.000000e+01
  %.sroa.0.4.vec.insert = insertelement <2 x float> %.sroa.0.0.vec.insert, float %18, i64 1
  %19 = sext i32 %5 to i64
  %20 = getelementptr inbounds [200 x %struct.Group], ptr @g_rainData, i64 0, i64 %19
  br label %22

21:                                               ; preds = %22
  ret void

22:                                               ; preds = %3, %22
  %indvars.iv = phi i64 [ 0, %3 ], [ %indvars.iv.next, %22 ]
  %.sroa.0.022 = phi <2 x float> [ %.sroa.0.4.vec.insert, %3 ], [ %.sroa.0.0.vec.insert11, %22 ]
  %23 = getelementptr inbounds nuw %struct.Human, ptr %20, i64 %indvars.iv
  %indvars.iv.next = add nuw nsw i64 %indvars.iv, 1
  %24 = trunc nuw nsw i64 %indvars.iv.next to i32
  tail call void @CreateHuman(ptr noundef nonnull %23, i32 %0, <2 x float> %.sroa.0.022, float noundef 1.000000e+00, float noundef 0x3FA99999A0000000, float noundef 5.000000e+00, float noundef 5.000000e-01, i32 noundef %24, ptr noundef null, i1 noundef zeroext false) #8
  %.sroa.0.0.vec.extract = extractelement <2 x float> %.sroa.0.022, i64 0
  %25 = fadd float %.sroa.0.0.vec.extract, 5.000000e-01
  %.sroa.0.0.vec.insert11 = insertelement <2 x float> %.sroa.0.022, float %25, i64 0
  %exitcond.not = icmp eq i64 %indvars.iv.next, 5
  br i1 %exitcond.not, label %21, label %22, !llvm.loop !42
}